target datalayout = "e-m:e-p270:32:32-p271:32:32-p272:64:64-i64:64-i128:128-f80:128-n8:16:32:64-S128"
target triple = "x86_64-pc-linux-gnu"

%struct.t_enxframe = type { double, i64, i64, double, i32, i32, i32, i32, ptr, i32, ptr, i32 }

; Function Attrs: mustprogress nounwind uwtable
define void @_Z13init_enxframeP10t_enxframe(ptr noundef %0) #0 {
  %2 = alloca ptr, align 8
  store ptr %0, ptr %2, align 8
  %3 = load ptr, ptr %2, align 8
  %4 = getelementptr inbounds %struct.t_enxframe, ptr %3, i32 0, i32 7
  store i32 0, ptr %4, align 4
  %5 = load ptr, ptr %2, align 8
  %6 = getelementptr inbounds %struct.t_enxframe, ptr %5, i32 0, i32 8
  store ptr null, ptr %6, align 8
  %7 = load ptr, ptr %2, align 8
  %8 = getelementptr inbounds %struct.t_enxframe, ptr %7, i32 0, i32 9
  store i32 0, ptr %8, align 8
  %9 = load ptr, ptr %2, align 8
  %10 = getelementptr inbounds %struct.t_enxframe, ptr %9, i32 0, i32 11
  store i32 0, ptr %10, align 8
  %11 = load ptr, ptr %2, align 8
  %12 = getelementptr inbounds %struct.t_enxframe, ptr %11, i32 0, i32 10
  store ptr null, ptr %12, align 8
  ret void
}