; Function Attrs: mustprogress nofree norecurse nosync nounwind willreturn memory(argmem: write) uwtable
define void @_Z13init_enxframeP10t_enxframe(ptr nocapture noundef writeonly %0) local_unnamed_addr #0 {
  %2 = getelementptr inbounds i8, ptr %0, i64 44
  %3 = getelementptr inbounds i8, ptr %0, i64 72
  store i32 0, ptr %3, align 8
  %4 = getelementptr inbounds i8, ptr %0, i64 64
  store ptr null, ptr %4, align 8
  tail call void @llvm.memset.p0.i64(ptr noundef nonnull align 4 dereferenceable(16) %2, i8 0, i64 16, i1 false)
  ret void
}